; Function Attrs: nounwind sspstrong uwtable
define dso_local void @tcg_gen_vec_sub8_i32(ptr noundef %0, ptr noundef %1, ptr noundef %2) local_unnamed_addr #2 {
  %4 = tail call ptr @tcg_constant_i32(i32 noundef -2139062144) #10
  %5 = tail call ptr @tcg_temp_ebb_new_i32() #10
  %6 = tail call ptr @tcg_temp_ebb_new_i32() #10
  %7 = tail call ptr @tcg_temp_ebb_new_i32() #10
  tail call void @tcg_gen_or_i32(ptr noundef %5, ptr noundef %1, ptr noundef %4) #10
  tail call void @tcg_gen_andc_i32(ptr noundef %6, ptr noundef %2, ptr noundef %4) #10
  tail call void @tcg_gen_eqv_i32(ptr noundef %7, ptr noundef %1, ptr noundef %2) #10
  tail call void @tcg_gen_sub_i32(ptr noundef %0, ptr noundef %5, ptr noundef %6) #10
  tail call void @tcg_gen_and_i32(ptr noundef %7, ptr noundef %7, ptr noundef %4) #10
  tail call void @tcg_gen_xor_i32(ptr noundef %0, ptr noundef %0, ptr noundef %7) #10
  tail call void @tcg_temp_free_i32(ptr noundef %5) #10
  tail call void @tcg_temp_free_i32(ptr noundef %6) #10
  tail call void @tcg_temp_free_i32(ptr noundef %7) #10
  ret void
}